; Function Attrs: nounwind uwtable
define zeroext i8 @l_Lake_LeanLib_buildType(ptr noundef readonly captures(none) %0) local_unnamed_addr #0 {
  %2 = getelementptr inbounds nuw i8, ptr %0, i64 8
  %3 = load ptr, ptr %2, align 8, !tbaa !4
  %4 = getelementptr inbounds nuw i8, ptr %3, i64 32
  %5 = load ptr, ptr %4, align 8, !tbaa !4
  %6 = getelementptr inbounds nuw i8, ptr %5, i64 16
  %7 = load ptr, ptr %6, align 8, !tbaa !4
  %8 = getelementptr inbounds nuw i8, ptr %7, i64 112
  %9 = load i8, ptr %8, align 1, !tbaa !14
  %10 = getelementptr inbounds nuw i8, ptr %0, i64 24
  %11 = load ptr, ptr %10, align 8, !tbaa !4
  %12 = getelementptr inbounds nuw i8, ptr %11, i64 8
  %13 = load ptr, ptr %12, align 8, !tbaa !4
  %14 = getelementptr inbounds nuw i8, ptr %13, i64 112
  %15 = load i8, ptr %14, align 1, !tbaa !14
  %16 = load ptr, ptr @l_Lake_instOrdBuildType, align 8, !tbaa !4
  %17 = zext i8 %9 to i64
  %18 = shl nuw nsw i64 %17, 1
  %19 = or disjoint i64 %18, 1
  %20 = inttoptr i64 %19 to ptr
  %21 = zext i8 %15 to i64
  %22 = shl nuw nsw i64 %21, 1
  %23 = or disjoint i64 %22, 1
  %24 = inttoptr i64 %23 to ptr
  %25 = tail call zeroext i8 @l_Ord_instDecidableRelLe___rarg(ptr noundef %16, ptr noundef nonnull %20, ptr noundef nonnull %24) #4
  %26 = icmp eq i8 %25, 0
  %. = select i1 %26, i8 %15, i8 %9
  ret i8 %.
}